gpasm-0.13.4 beta               flash.asm   6-21-2007  10:41:01          PAGE  1


LOC  OBJECT CODE     LINE SOURCE TEXT
  VALUE
 
               00001 ;--------------------------------------------------------
               00002 ; File Created by SDCC : free open source ANSI-C Compiler
               00003 ; Version 2.7.2 #4854 (Jun 17 2007)
               00004 ; This file generated Thu Jun 21 10:41:01 2007
               00005 ;--------------------------------------------------------
               00006 ; PIC16 port for the Microchip 16-bit core micros
               00007 ;--------------------------------------------------------
               00008         list    p=18f4550
               00009 
               00010         radix dec
               00011 
               00012 ;--------------------------------------------------------
               00013 ; public variables in this module
               00014 ;--------------------------------------------------------
               00015         global _ep2_source_data
               00016         global _ep2_num_bytes_to_send
               00017         global _write_block
               00018         global _erase_block
               00019 
               00020 ;--------------------------------------------------------
               00021 ; extern variables in this module
               00022 ;--------------------------------------------------------
               00023         extern _SPPDATAbits
               00024         extern _SPPCFGbits
               00025         extern _SPPEPSbits
               00026         extern _SPPCONbits
               00027         extern _UFRMLbits
               00028         extern _UFRMHbits
               00029         extern _UIRbits
               00030         extern _UIEbits
               00031         extern _UEIRbits
               00032         extern _UEIEbits
               00033         extern _USTATbits
               00034         extern _UCONbits
               00035         extern _UADDRbits
               00036         extern _UCFGbits
               00037         extern _UEP0bits
               00038         extern _UEP1bits
               00039         extern _UEP2bits
               00040         extern _UEP3bits
               00041         extern _UEP4bits
               00042         extern _UEP5bits
               00043         extern _UEP6bits
               00044         extern _UEP7bits
               00045         extern _UEP8bits
               00046         extern _UEP9bits
               00047         extern _UEP10bits
               00048         extern _UEP11bits
               00049         extern _UEP12bits
               00050         extern _UEP13bits
               00051         extern _UEP14bits
               00052         extern _UEP15bits
               00053         extern _PORTAbits
               00054         extern _PORTBbits
gpasm-0.13.4 beta               flash.asm   6-21-2007  10:41:01          PAGE  2


LOC  OBJECT CODE     LINE SOURCE TEXT
  VALUE
 
               00055         extern _PORTCbits
               00056         extern _PORTDbits
               00057         extern _PORTEbits
               00058         extern _LATAbits
               00059         extern _LATBbits
               00060         extern _LATCbits
               00061         extern _LATDbits
               00062         extern _LATEbits
               00063         extern _TRISAbits
               00064         extern _TRISBbits
               00065         extern _TRISCbits
               00066         extern _TRISDbits
               00067         extern _TRISEbits
               00068         extern _OSCTUNEbits
               00069         extern _PIE1bits
               00070         extern _PIR1bits
               00071         extern _IPR1bits
               00072         extern _PIE2bits
               00073         extern _PIR2bits
               00074         extern _IPR2bits
               00075         extern _EECON1bits
               00076         extern _RCSTAbits
               00077         extern _TXSTAbits
               00078         extern _T3CONbits
               00079         extern _CMCONbits
               00080         extern _CVRCONbits
               00081         extern _ECCP1ASbits
               00082         extern _ECCP1DELbits
               00083         extern _BAUDCONbits
               00084         extern _CCP2CONbits
               00085         extern _CCP1CONbits
               00086         extern _ADCON2bits
               00087         extern _ADCON1bits
               00088         extern _ADCON0bits
               00089         extern _SSPCON2bits
               00090         extern _SSPCON1bits
               00091         extern _SSPSTATbits
               00092         extern _T2CONbits
               00093         extern _T1CONbits
               00094         extern _RCONbits
               00095         extern _WDTCONbits
               00096         extern _HLVDCONbits
               00097         extern _OSCCONbits
               00098         extern _T0CONbits
               00099         extern _STATUSbits
               00100         extern _FSR2Hbits
               00101         extern _BSRbits
               00102         extern _FSR1Hbits
               00103         extern _FSR0Hbits
               00104         extern _INTCON3bits
               00105         extern _INTCON2bits
               00106         extern _INTCONbits
               00107         extern _TBLPTRUbits
               00108         extern _PCLATHbits
gpasm-0.13.4 beta               flash.asm   6-21-2007  10:41:01          PAGE  3


LOC  OBJECT CODE     LINE SOURCE TEXT
  VALUE
 
               00109         extern _PCLATUbits
               00110         extern _STKPTRbits
               00111         extern _TOSUbits
               00112         extern _SPPDATA
               00113         extern _SPPCFG
               00114         extern _SPPEPS
               00115         extern _SPPCON
               00116         extern _UFRML
               00117         extern _UFRMH
               00118         extern _UIR
               00119         extern _UIE
               00120         extern _UEIR
               00121         extern _UEIE
               00122         extern _USTAT
               00123         extern _UCON
               00124         extern _UADDR
               00125         extern _UCFG
               00126         extern _UEP0
               00127         extern _UEP1
               00128         extern _UEP2
               00129         extern _UEP3
               00130         extern _UEP4
               00131         extern _UEP5
               00132         extern _UEP6
               00133         extern _UEP7
               00134         extern _UEP8
               00135         extern _UEP9
               00136         extern _UEP10
               00137         extern _UEP11
               00138         extern _UEP12
               00139         extern _UEP13
               00140         extern _UEP14
               00141         extern _UEP15
               00142         extern _PORTA
               00143         extern _PORTB
               00144         extern _PORTC
               00145         extern _PORTD
               00146         extern _PORTE
               00147         extern _LATA
               00148         extern _LATB
               00149         extern _LATC
               00150         extern _LATD
               00151         extern _LATE
               00152         extern _TRISA
               00153         extern _TRISB
               00154         extern _TRISC
               00155         extern _TRISD
               00156         extern _TRISE
               00157         extern _OSCTUNE
               00158         extern _PIE1
               00159         extern _PIR1
               00160         extern _IPR1
               00161         extern _PIE2
               00162         extern _PIR2
gpasm-0.13.4 beta               flash.asm   6-21-2007  10:41:01          PAGE  4


LOC  OBJECT CODE     LINE SOURCE TEXT
  VALUE
 
               00163         extern _IPR2
               00164         extern _EECON1
               00165         extern _EECON2
               00166         extern _EEDATA
               00167         extern _EEADR
               00168         extern _RCSTA
               00169         extern _TXSTA
               00170         extern _TXREG
               00171         extern _RCREG
               00172         extern _SPBRG
               00173         extern _SPBRGH
               00174         extern _T3CON
               00175         extern _TMR3L
               00176         extern _TMR3H
               00177         extern _CMCON
               00178         extern _CVRCON
               00179         extern _ECCP1AS
               00180         extern _ECCP1DEL
               00181         extern _BAUDCON
               00182         extern _CCP2CON
               00183         extern _CCPR2L
               00184         extern _CCPR2H
               00185         extern _CCP1CON
               00186         extern _CCPR1L
               00187         extern _CCPR1H
               00188         extern _ADCON2
               00189         extern _ADCON1
               00190         extern _ADCON0
               00191         extern _ADRESL
               00192         extern _ADRESH
               00193         extern _SSPCON2
               00194         extern _SSPCON1
               00195         extern _SSPSTAT
               00196         extern _SSPADD
               00197         extern _SSPBUF
               00198         extern _T2CON
               00199         extern _PR2
               00200         extern _TMR2
               00201         extern _T1CON
               00202         extern _TMR1L
               00203         extern _TMR1H
               00204         extern _RCON
               00205         extern _WDTCON
               00206         extern _HLVDCON
               00207         extern _OSCCON
               00208         extern _T0CON
               00209         extern _TMR0L
               00210         extern _TMR0H
               00211         extern _STATUS
               00212         extern _FSR2L
               00213         extern _FSR2H
               00214         extern _PLUSW2
               00215         extern _PREINC2
               00216         extern _POSTDEC2
gpasm-0.13.4 beta               flash.asm   6-21-2007  10:41:01          PAGE  5


LOC  OBJECT CODE     LINE SOURCE TEXT
  VALUE
 
               00217         extern _POSTINC2
               00218         extern _INDF2
               00219         extern _BSR
               00220         extern _FSR1L
               00221         extern _FSR1H
               00222         extern _PLUSW1
               00223         extern _PREINC1
               00224         extern _POSTDEC1
               00225         extern _POSTINC1
               00226         extern _INDF1
               00227         extern _WREG
               00228         extern _FSR0L
               00229         extern _FSR0H
               00230         extern _PLUSW0
               00231         extern _PREINC0
               00232         extern _POSTDEC0
               00233         extern _POSTINC0
               00234         extern _INDF0
               00235         extern _INTCON3
               00236         extern _INTCON2
               00237         extern _INTCON
               00238         extern _PRODL
               00239         extern _PRODH
               00240         extern _TABLAT
               00241         extern _TBLPTRL
               00242         extern _TBLPTRH
               00243         extern _TBLPTRU
               00244         extern _PCL
               00245         extern _PCLATH
               00246         extern _PCLATU
               00247         extern _STKPTR
               00248         extern _TOSL
               00249         extern _TOSH
               00250         extern _TOSU
               00251         extern _section_descriptor
               00252 ;--------------------------------------------------------
               00253 ;       Equates to used internal registers
               00254 ;--------------------------------------------------------
  00000FD8     00255 STATUS  equ     0xfd8
  00000FE9     00256 FSR0L   equ     0xfe9
  00000FEA     00257 FSR0H   equ     0xfea
  00000FE1     00258 FSR1L   equ     0xfe1
  00000FD9     00259 FSR2L   equ     0xfd9
  00000FEF     00260 INDF0   equ     0xfef
  00000FE5     00261 POSTDEC1        equ     0xfe5
  00000FE4     00262 PREINC1 equ     0xfe4
  00000FDB     00263 PLUSW2  equ     0xfdb
               00264 
               00265 
               00266 ; Internal registers
               00267 .registers      udata_ovr       0x0000
               00268 r0x00   res     1
               00269 r0x01   res     1
               00270 
gpasm-0.13.4 beta               flash.asm   6-21-2007  10:41:01          PAGE  6


LOC  OBJECT CODE     LINE SOURCE TEXT
  VALUE
 
               00271 udata_flash_0   udata
               00272 _ep2_num_bytes_to_send  res     2
               00273 
               00274 udata_flash_1   udata
               00275 _ep2_source_data        res     3
               00276 
               00277 udata_flash_2   udata
               00278 _write_block_i_1_1      res     1
               00279 
               00280 ;--------------------------------------------------------
               00281 ; global & static initialisations
               00282 ;--------------------------------------------------------
               00283 ; I code from now on!
               00284 ; ; Starting pCode block
               00285 S_flash__erase_block    code
0000           00286 _erase_block:
               00287 ;       .line   78; flash.c     void erase_block()
0000 CFD9 FFE5 00288         MOVFF   FSR2L, POSTDEC1
0004 CFE1 FFD9 00289         MOVFF   FSR1L, FSR2L
0008 8E00      00290         bsf _EECON1, 7
000A 9C00      00291         bcf _EECON1, 6
000C 8400      00292         bsf _EECON1, 2
000E 8800      00293         bsf _EECON1, 4
0010 9E00      00294         bcf _INTCON, 7
0012 0E55      00295         movlw 0x55
0014 6E00      00296         movwf _EECON2
0016 0EAA      00297         movlw 0xaa
0018 6E00      00298         movwf _EECON2
001A 8200      00299         bsf _EECON1, 1
               00300         
001C CFE4 FFD9 00301         MOVFF   PREINC1, FSR2L
0020 0012      00302         RETURN  
               00303 
               00304 ; ; Starting pCode block
               00305 S_flash__write_block    code
0000           00306 _write_block:
               00307 ;       .line   32; flash.c     void write_block(__data uchar *src)
0000 CFD9 FFE5 00308         MOVFF   FSR2L, POSTDEC1
0004 CFE1 FFD9 00309         MOVFF   FSR1L, FSR2L
0008 C000 FFE5 00310         MOVFF   r0x00, POSTDEC1
000C C000 FFE5 00311         MOVFF   r0x01, POSTDEC1
0010 0E02      00312         MOVLW   0x02
0012 CFDB F000 00313         MOVFF   PLUSW2, r0x00
0016 0E03      00314         MOVLW   0x03
0018 CFDB F000 00315         MOVFF   PLUSW2, r0x01
001C 000A      00316         tblrd*-
               00317         
001E 0000      00318         BANKSEL _write_block_i_1_1
               00319 ;       .line   43; flash.c     for(i = 0; i < 32; i++)
0020 6B00      00320         CLRF    _write_block_i_1_1, B
0022           00321 _00105_DS_:
0022 0E20      00322         MOVLW   0x20
0024 0000      00323         BANKSEL _write_block_i_1_1
0026 5D00      00324         SUBWF   _write_block_i_1_1, W, B
gpasm-0.13.4 beta               flash.asm   6-21-2007  10:41:01          PAGE  7


LOC  OBJECT CODE     LINE SOURCE TEXT
  VALUE
 
0028 B0D8      00325         BTFSC   STATUS, 0
002A EF00 F000 00326         GOTO    _00108_DS_
               00327 ;       .line   45; flash.c     TABLAT = *src;
002E C000 FFE9 00328         MOVFF   r0x00, FSR0L
0032 C000 FFEA 00329         MOVFF   r0x01, FSR0H
0036 CFEF F000 00330         MOVFF   INDF0, _TABLAT
               00331 ;       .line   47; flash.c     src++;
003A 2A00      00332         INCF    r0x00, F
003C B0D8      00333         BTFSC   STATUS, 0
003E 2A00      00334         INCF    r0x01, F
0040 000F      00335         tblwt+*
               00336         
0042 0000      00337         BANKSEL _write_block_i_1_1
               00338 ;       .line   43; flash.c     for(i = 0; i < 32; i++)
0044 2B00      00339         INCF    _write_block_i_1_1, F, B
0046 EF00 F000 00340         GOTO    _00105_DS_
004A           00341 _00108_DS_:
004A 8E00      00342         bsf _EECON1, 7
004C 9C00      00343         bcf _EECON1, 6
004E 8400      00344         bsf _EECON1, 2
0050 9E00      00345         bcf _INTCON, 7
0052 0E55      00346         movlw 0x55
0054 6E00      00347         movwf _EECON2
0056 0EAA      00348         movlw 0xaa
0058 6E00      00349         movwf _EECON2
005A 8200      00350         bsf _EECON1, 1
               00351         
005C CFE4 F000 00352         MOVFF   PREINC1, r0x01
0060 CFE4 F000 00353         MOVFF   PREINC1, r0x00
0064 CFE4 FFD9 00354         MOVFF   PREINC1, FSR2L
0068 0012      00355         RETURN  
               00356 
               00357 
               00358 
               00359 ; Statistics:
               00360 ; code size:      148 (0x0094) bytes ( 0.11%)
               00361 ;                  74 (0x004a) words
               00362 ; udata size:       6 (0x0006) bytes ( 0.33%)
               00363 ; access size:      2 (0x0002) bytes
               00364 
               00365 
gpasm-0.13.4 beta               flash.asm   6-21-2007  10:41:01          PAGE  8


SYMBOL TABLE
  LABEL                             VALUE 

FSR0H                             00000FEA
FSR0L                             00000FE9
FSR1L                             00000FE1
FSR2L                             00000FD9
INDF0                             00000FEF
PLUSW2                            00000FDB
POSTDEC1                          00000FE5
PREINC1                           00000FE4
STATUS                            00000FD8
_00105_DS_                        00000022
_00108_DS_                        0000004A
_ADCON0                           00000000
_ADCON0bits                       00000000
_ADCON1                           00000000
_ADCON1bits                       00000000
_ADCON2                           00000000
_ADCON2bits                       00000000
_ADRESH                           00000000
_ADRESL                           00000000
_BAUDCON                          00000000
_BAUDCONbits                      00000000
_BSR                              00000000
_BSRbits                          00000000
_CCP1CON                          00000000
_CCP1CONbits                      00000000
_CCP2CON                          00000000
_CCP2CONbits                      00000000
_CCPR1H                           00000000
_CCPR1L                           00000000
_CCPR2H                           00000000
_CCPR2L                           00000000
_CMCON                            00000000
_CMCONbits                        00000000
_CVRCON                           00000000
_CVRCONbits                       00000000
_ECCP1AS                          00000000
_ECCP1ASbits                      00000000
_ECCP1DEL                         00000000
_ECCP1DELbits                     00000000
_EEADR                            00000000
_EECON1                           00000000
_EECON1bits                       00000000
_EECON2                           00000000
_EEDATA                           00000000
_FSR0H                            00000000
_FSR0Hbits                        00000000
_FSR0L                            00000000
_FSR1H                            00000000
_FSR1Hbits                        00000000
_FSR1L                            00000000
_FSR2H                            00000000
_FSR2Hbits                        00000000
_FSR2L                            00000000
gpasm-0.13.4 beta               flash.asm   6-21-2007  10:41:01          PAGE  9


LOC  OBJECT CODE     LINE SOURCE TEXT
  VALUE
 
_HLVDCON                          00000000
_HLVDCONbits                      00000000
_INDF0                            00000000
_INDF1                            00000000
_INDF2                            00000000
_INTCON                           00000000
_INTCON2                          00000000
_INTCON2bits                      00000000
_INTCON3                          00000000
_INTCON3bits                      00000000
_INTCONbits                       00000000
_IPR1                             00000000
_IPR1bits                         00000000
_IPR2                             00000000
_IPR2bits                         00000000
_LATA                             00000000
_LATAbits                         00000000
_LATB                             00000000
_LATBbits                         00000000
_LATC                             00000000
_LATCbits                         00000000
_LATD                             00000000
_LATDbits                         00000000
_LATE                             00000000
_LATEbits                         00000000
_OSCCON                           00000000
_OSCCONbits                       00000000
_OSCTUNE                          00000000
_OSCTUNEbits                      00000000
_PCL                              00000000
_PCLATH                           00000000
_PCLATHbits                       00000000
_PCLATU                           00000000
_PCLATUbits                       00000000
_PIE1                             00000000
_PIE1bits                         00000000
_PIE2                             00000000
_PIE2bits                         00000000
_PIR1                             00000000
_PIR1bits                         00000000
_PIR2                             00000000
_PIR2bits                         00000000
_PLUSW0                           00000000
_PLUSW1                           00000000
_PLUSW2                           00000000
_PORTA                            00000000
_PORTAbits                        00000000
_PORTB                            00000000
_PORTBbits                        00000000
_PORTC                            00000000
_PORTCbits                        00000000
_PORTD                            00000000
_PORTDbits                        00000000
_PORTE                            00000000
gpasm-0.13.4 beta               flash.asm   6-21-2007  10:41:01          PAGE 10


LOC  OBJECT CODE     LINE SOURCE TEXT
  VALUE
 
_PORTEbits                        00000000
_POSTDEC0                         00000000
_POSTDEC1                         00000000
_POSTDEC2                         00000000
_POSTINC0                         00000000
_POSTINC1                         00000000
_POSTINC2                         00000000
_PR2                              00000000
_PREINC0                          00000000
_PREINC1                          00000000
_PREINC2                          00000000
_PRODH                            00000000
_PRODL                            00000000
_RCON                             00000000
_RCONbits                         00000000
_RCREG                            00000000
_RCSTA                            00000000
_RCSTAbits                        00000000
_SPBRG                            00000000
_SPBRGH                           00000000
_SPPCFG                           00000000
_SPPCFGbits                       00000000
_SPPCON                           00000000
_SPPCONbits                       00000000
_SPPDATA                          00000000
_SPPDATAbits                      00000000
_SPPEPS                           00000000
_SPPEPSbits                       00000000
_SSPADD                           00000000
_SSPBUF                           00000000
_SSPCON1                          00000000
_SSPCON1bits                      00000000
_SSPCON2                          00000000
_SSPCON2bits                      00000000
_SSPSTAT                          00000000
_SSPSTATbits                      00000000
_STATUS                           00000000
_STATUSbits                       00000000
_STKPTR                           00000000
_STKPTRbits                       00000000
_T0CON                            00000000
_T0CONbits                        00000000
_T1CON                            00000000
_T1CONbits                        00000000
_T2CON                            00000000
_T2CONbits                        00000000
_T3CON                            00000000
_T3CONbits                        00000000
_TABLAT                           00000000
_TBLPTRH                          00000000
_TBLPTRL                          00000000
_TBLPTRU                          00000000
_TBLPTRUbits                      00000000
_TMR0H                            00000000
gpasm-0.13.4 beta               flash.asm   6-21-2007  10:41:01          PAGE 11


LOC  OBJECT CODE     LINE SOURCE TEXT
  VALUE
 
_TMR0L                            00000000
_TMR1H                            00000000
_TMR1L                            00000000
_TMR2                             00000000
_TMR3H                            00000000
_TMR3L                            00000000
_TOSH                             00000000
_TOSL                             00000000
_TOSU                             00000000
_TOSUbits                         00000000
_TRISA                            00000000
_TRISAbits                        00000000
_TRISB                            00000000
_TRISBbits                        00000000
_TRISC                            00000000
_TRISCbits                        00000000
_TRISD                            00000000
_TRISDbits                        00000000
_TRISE                            00000000
_TRISEbits                        00000000
_TXREG                            00000000
_TXSTA                            00000000
_TXSTAbits                        00000000
_UADDR                            00000000
_UADDRbits                        00000000
_UCFG                             00000000
_UCFGbits                         00000000
_UCON                             00000000
_UCONbits                         00000000
_UEIE                             00000000
_UEIEbits                         00000000
_UEIR                             00000000
_UEIRbits                         00000000
_UEP0                             00000000
_UEP0bits                         00000000
_UEP1                             00000000
_UEP10                            00000000
_UEP10bits                        00000000
_UEP11                            00000000
_UEP11bits                        00000000
_UEP12                            00000000
_UEP12bits                        00000000
_UEP13                            00000000
_UEP13bits                        00000000
_UEP14                            00000000
_UEP14bits                        00000000
_UEP15                            00000000
_UEP15bits                        00000000
_UEP1bits                         00000000
_UEP2                             00000000
_UEP2bits                         00000000
_UEP3                             00000000
_UEP3bits                         00000000
_UEP4                             00000000
gpasm-0.13.4 beta               flash.asm   6-21-2007  10:41:01          PAGE 12


LOC  OBJECT CODE     LINE SOURCE TEXT
  VALUE
 
_UEP4bits                         00000000
_UEP5                             00000000
_UEP5bits                         00000000
_UEP6                             00000000
_UEP6bits                         00000000
_UEP7                             00000000
_UEP7bits                         00000000
_UEP8                             00000000
_UEP8bits                         00000000
_UEP9                             00000000
_UEP9bits                         00000000
_UFRMH                            00000000
_UFRMHbits                        00000000
_UFRML                            00000000
_UFRMLbits                        00000000
_UIE                              00000000
_UIEbits                          00000000
_UIR                              00000000
_UIRbits                          00000000
_USTAT                            00000000
_USTATbits                        00000000
_WDTCON                           00000000
_WDTCONbits                       00000000
_WREG                             00000000
__18F4550                         00000001
_ep2_num_bytes_to_send            00000000
_ep2_source_data                  00000000
_erase_block                      00000000
_section_descriptor               00000000
_write_block                      00000000
_write_block_i_1_1                00000000
r0x00                             00000000
r0x01                             00000001


Errors   :       0
Warnings :       0 reported,       0 suppressed
Messages :       0 reported,       0 suppressed

