gpasm-0.13.4 beta               picon.asm   6-22-2007  21:24:52          PAGE  1


LOC  OBJECT CODE     LINE SOURCE TEXT
  VALUE
 
               00001 ;--------------------------------------------------------
               00002 ; File Created by SDCC : FreeWare ANSI-C Compiler
               00003 ; Version 2.6.0 #4309 (Nov 10 2006)
               00004 ; This file generated Fri Jun 22 21:24:52 2007
               00005 ;--------------------------------------------------------
               00006 ; PIC16 port for the Microchip 16-bit core micros
               00007 ;--------------------------------------------------------
               00008         list    p=18f4550
               00009 
               00010         radix dec
               00011 
               00012 ;--------------------------------------------------------
               00013 ; public variables in this module
               00014 ;--------------------------------------------------------
               00015         global _picon_init
               00016         global _prepare_in
               00017         global _picon_in
               00018         global _putchar
               00019         global _prepare_next_packet
               00020 
               00021 ;--------------------------------------------------------
               00022 ; extern variables in this module
               00023 ;--------------------------------------------------------
               00024         extern __gptrput1
               00025         extern _ep_bdt
               00026         extern _usb_device_state
               00027         extern _usb_active_cfg
               00028         extern _usb_active_alt_setting
               00029         extern _SPPDATAbits
               00030         extern _SPPCFGbits
               00031         extern _SPPEPSbits
               00032         extern _SPPCONbits
               00033         extern _UFRMLbits
               00034         extern _UFRMHbits
               00035         extern _UIRbits
               00036         extern _UIEbits
               00037         extern _UEIRbits
               00038         extern _UEIEbits
               00039         extern _USTATbits
               00040         extern _UCONbits
               00041         extern _UADDRbits
               00042         extern _UCFGbits
               00043         extern _UEP0bits
               00044         extern _UEP1bits
               00045         extern _UEP2bits
               00046         extern _UEP3bits
               00047         extern _UEP4bits
               00048         extern _UEP5bits
               00049         extern _UEP6bits
               00050         extern _UEP7bits
               00051         extern _UEP8bits
               00052         extern _UEP9bits
               00053         extern _UEP10bits
               00054         extern _UEP11bits
gpasm-0.13.4 beta               picon.asm   6-22-2007  21:24:52          PAGE  2


LOC  OBJECT CODE     LINE SOURCE TEXT
  VALUE
 
               00055         extern _UEP12bits
               00056         extern _UEP13bits
               00057         extern _UEP14bits
               00058         extern _UEP15bits
               00059         extern _PORTAbits
               00060         extern _PORTBbits
               00061         extern _PORTCbits
               00062         extern _PORTEbits
               00063         extern _LATAbits
               00064         extern _LATBbits
               00065         extern _LATCbits
               00066         extern _TRISAbits
               00067         extern _TRISBbits
               00068         extern _TRISCbits
               00069         extern _OSCTUNEbits
               00070         extern _PIE1bits
               00071         extern _PIR1bits
               00072         extern _IPR1bits
               00073         extern _PIE2bits
               00074         extern _PIR2bits
               00075         extern _IPR2bits
               00076         extern _EECON1bits
               00077         extern _RCSTAbits
               00078         extern _TXSTAbits
               00079         extern _T3CONbits
               00080         extern _CMCONbits
               00081         extern _CVRCONbits
               00082         extern _ECCP1ASbits
               00083         extern _ECCP1DELbits
               00084         extern _BAUDCONbits
               00085         extern _CCP2CONbits
               00086         extern _CCP1CONbits
               00087         extern _ADCON2bits
               00088         extern _ADCON1bits
               00089         extern _ADCON0bits
               00090         extern _SSPCON2bits
               00091         extern _SSPCON1bits
               00092         extern _SSPSTATbits
               00093         extern _T2CONbits
               00094         extern _T1CONbits
               00095         extern _RCONbits
               00096         extern _WDTCONbits
               00097         extern _HLVDCONbits
               00098         extern _OSCCONbits
               00099         extern _T0CONbits
               00100         extern _STATUSbits
               00101         extern _FSR2Hbits
               00102         extern _BSRbits
               00103         extern _FSR1Hbits
               00104         extern _FSR0Hbits
               00105         extern _INTCON3bits
               00106         extern _INTCON2bits
               00107         extern _INTCONbits
               00108         extern _TBLPTRUbits
gpasm-0.13.4 beta               picon.asm   6-22-2007  21:24:52          PAGE  3


LOC  OBJECT CODE     LINE SOURCE TEXT
  VALUE
 
               00109         extern _PCLATHbits
               00110         extern _PCLATUbits
               00111         extern _STKPTRbits
               00112         extern _TOSUbits
               00113         extern _stdin
               00114         extern _stdout
               00115         extern _SPPDATA
               00116         extern _SPPCFG
               00117         extern _SPPEPS
               00118         extern _SPPCON
               00119         extern _UFRML
               00120         extern _UFRMH
               00121         extern _UIR
               00122         extern _UIE
               00123         extern _UEIR
               00124         extern _UEIE
               00125         extern _USTAT
               00126         extern _UCON
               00127         extern _UADDR
               00128         extern _UCFG
               00129         extern _UEP0
               00130         extern _UEP1
               00131         extern _UEP2
               00132         extern _UEP3
               00133         extern _UEP4
               00134         extern _UEP5
               00135         extern _UEP6
               00136         extern _UEP7
               00137         extern _UEP8
               00138         extern _UEP9
               00139         extern _UEP10
               00140         extern _UEP11
               00141         extern _UEP12
               00142         extern _UEP13
               00143         extern _UEP14
               00144         extern _UEP15
               00145         extern _PORTA
               00146         extern _PORTB
               00147         extern _PORTC
               00148         extern _PORTE
               00149         extern _LATA
               00150         extern _LATB
               00151         extern _LATC
               00152         extern _TRISA
               00153         extern _TRISB
               00154         extern _TRISC
               00155         extern _OSCTUNE
               00156         extern _PIE1
               00157         extern _PIR1
               00158         extern _IPR1
               00159         extern _PIE2
               00160         extern _PIR2
               00161         extern _IPR2
               00162         extern _EECON1
gpasm-0.13.4 beta               picon.asm   6-22-2007  21:24:52          PAGE  4


LOC  OBJECT CODE     LINE SOURCE TEXT
  VALUE
 
               00163         extern _EECON2
               00164         extern _EEDATA
               00165         extern _EEADR
               00166         extern _RCSTA
               00167         extern _TXSTA
               00168         extern _TXREG
               00169         extern _RCREG
               00170         extern _SPBRG
               00171         extern _SPBRGH
               00172         extern _T3CON
               00173         extern _TMR3L
               00174         extern _TMR3H
               00175         extern _CMCON
               00176         extern _CVRCON
               00177         extern _ECCP1AS
               00178         extern _ECCP1DEL
               00179         extern _BAUDCON
               00180         extern _CCP2CON
               00181         extern _CCPR2L
               00182         extern _CCPR2H
               00183         extern _CCP1CON
               00184         extern _CCPR1L
               00185         extern _CCPR1H
               00186         extern _ADCON2
               00187         extern _ADCON1
               00188         extern _ADCON0
               00189         extern _ADRESL
               00190         extern _ADRESH
               00191         extern _SSPCON2
               00192         extern _SSPCON1
               00193         extern _SSPSTAT
               00194         extern _SSPADD
               00195         extern _SSPBUF
               00196         extern _T2CON
               00197         extern _PR2
               00198         extern _TMR2
               00199         extern _T1CON
               00200         extern _TMR1L
               00201         extern _TMR1H
               00202         extern _RCON
               00203         extern _WDTCON
               00204         extern _HLVDCON
               00205         extern _OSCCON
               00206         extern _T0CON
               00207         extern _TMR0L
               00208         extern _TMR0H
               00209         extern _STATUS
               00210         extern _FSR2L
               00211         extern _FSR2H
               00212         extern _PLUSW2
               00213         extern _PREINC2
               00214         extern _POSTDEC2
               00215         extern _POSTINC2
               00216         extern _INDF2
gpasm-0.13.4 beta               picon.asm   6-22-2007  21:24:52          PAGE  5


LOC  OBJECT CODE     LINE SOURCE TEXT
  VALUE
 
               00217         extern _BSR
               00218         extern _FSR1L
               00219         extern _FSR1H
               00220         extern _PLUSW1
               00221         extern _PREINC1
               00222         extern _POSTDEC1
               00223         extern _POSTINC1
               00224         extern _INDF1
               00225         extern _WREG
               00226         extern _FSR0L
               00227         extern _FSR0H
               00228         extern _PLUSW0
               00229         extern _PREINC0
               00230         extern _POSTDEC0
               00231         extern _POSTINC0
               00232         extern _INDF0
               00233         extern _INTCON3
               00234         extern _INTCON2
               00235         extern _INTCON
               00236         extern _PRODL
               00237         extern _PRODH
               00238         extern _TABLAT
               00239         extern _TBLPTRL
               00240         extern _TBLPTRH
               00241         extern _TBLPTRU
               00242         extern _PCL
               00243         extern _PCLATH
               00244         extern _PCLATU
               00245         extern _STKPTR
               00246         extern _TOSL
               00247         extern _TOSH
               00248         extern _TOSU
               00249         extern _fill_in_buffer
               00250         extern _picon_buffer_size
               00251         extern _Picon_InBuffer
               00252         extern _picon_ep
               00253 ;--------------------------------------------------------
               00254 ;       Equates to used internal registers
               00255 ;--------------------------------------------------------
  00000FD8     00256 STATUS  equ     0xfd8
  00000FE8     00257 WREG    equ     0xfe8
  00000FF6     00258 TBLPTRL equ     0xff6
  00000FF7     00259 TBLPTRH equ     0xff7
  00000FF8     00260 TBLPTRU equ     0xff8
  00000FF5     00261 TABLAT  equ     0xff5
  00000FE9     00262 FSR0L   equ     0xfe9
  00000FEA     00263 FSR0H   equ     0xfea
  00000FE1     00264 FSR1L   equ     0xfe1
  00000FD9     00265 FSR2L   equ     0xfd9
  00000FEF     00266 INDF0   equ     0xfef
  00000FEE     00267 POSTINC0        equ     0xfee
  00000FE5     00268 POSTDEC1        equ     0xfe5
  00000FE4     00269 PREINC1 equ     0xfe4
  00000FF3     00270 PRODL   equ     0xff3
gpasm-0.13.4 beta               picon.asm   6-22-2007  21:24:52          PAGE  6


LOC  OBJECT CODE     LINE SOURCE TEXT
  VALUE
 
  00000FF4     00271 PRODH   equ     0xff4
               00272 
               00273 
               00274 ; Internal registers
               00275 .registers      udata_ovr       0x0000
               00276 r0x00   res     1
               00277 r0x01   res     1
               00278 r0x02   res     1
               00279 r0x03   res     1
               00280 r0x04   res     1
               00281 r0x05   res     1
               00282 r0x06   res     1
               00283 r0x07   res     1
               00284 
               00285 udata_picon_0   udata
               00286 _last_packet_was_void   res     1
               00287 
               00288 udata_picon_1   udata
               00289 _num_bytes_to_send      res     2
               00290 
               00291 udata_picon_2   udata
               00292 _num_bytes      res     1
               00293 
               00294 udata_picon_3   udata
               00295 _send_in_progress       res     1
               00296 
               00297 udata_picon_4   udata
               00298 _bottom res     3
               00299 
               00300 udata_picon_5   udata
               00301 _top    res     3
               00302 
               00303 udata_picon_6   udata
               00304 _tmp_bottom     res     3
               00305 
               00306 ;--------------------------------------------------------
               00307 ; global & static initialisations
               00308 ;--------------------------------------------------------
               00309 ; I code from now on!
               00310 ; ; Starting pCode block
               00311 S_picon__putchar        code
0000           00312 _putchar:
               00313 ;       .line   191; picon.c    PUTCHAR(c)
0000 C000 FFE5 00314         MOVFF   r0x00, POSTDEC1
0004 C000 FFE5 00315         MOVFF   r0x01, POSTDEC1
0008 C000 FFE5 00316         MOVFF   r0x02, POSTDEC1
000C C000 FFE5 00317         MOVFF   r0x03, POSTDEC1
0010 C000 FFE5 00318         MOVFF   r0x04, POSTDEC1
0014 C000 FFE5 00319         MOVFF   r0x05, POSTDEC1
0018 C000 FFE5 00320         MOVFF   r0x06, POSTDEC1
001C C000 FFE5 00321         MOVFF   r0x07, POSTDEC1
0020 6E00      00322         MOVWF   r0x00
               00323 ;       .line   196; picon.c    ib = INTCONbits.GIE;
0022 6A00      00324         CLRF    r0x01
gpasm-0.13.4 beta               picon.asm   6-22-2007  21:24:52          PAGE  7


LOC  OBJECT CODE     LINE SOURCE TEXT
  VALUE
 
0024 BE00      00325         BTFSC   _INTCONbits, 7
0026 2A00      00326         INCF    r0x01, F
               00327 ;       .line   197; picon.c    INTCONbits.GIE = 0;
0028 9E00      00328         BCF     _INTCONbits, 7
               00329 ;       .line   199; picon.c    if(top >= (Picon_InBuffer + picon_buffer_size))
002A 0E00      00330         MOVLW   LOW(_picon_buffer_size)
002C 6EF6      00331         MOVWF   TBLPTRL
002E 0E00      00332         MOVLW   HIGH(_picon_buffer_size)
0030 6EF7      00333         MOVWF   TBLPTRH
0032 0E00      00334         MOVLW   UPPER(_picon_buffer_size)
0034 6EF8      00335         MOVWF   TBLPTRU
0036 0009      00336         TBLRD*+ 
0038 CFF5 F000 00337         MOVFF   TABLAT, r0x02
003C 0009      00338         TBLRD*+ 
003E CFF5 F000 00339         MOVFF   TABLAT, r0x03
0042 0E00      00340         MOVLW   LOW(_Picon_InBuffer)
0044 6EF6      00341         MOVWF   TBLPTRL
0046 0E00      00342         MOVLW   HIGH(_Picon_InBuffer)
0048 6EF7      00343         MOVWF   TBLPTRH
004A 0E00      00344         MOVLW   UPPER(_Picon_InBuffer)
004C 6EF8      00345         MOVWF   TBLPTRU
004E 0009      00346         TBLRD*+ 
0050 CFF5 F000 00347         MOVFF   TABLAT, r0x04
0054 0009      00348         TBLRD*+ 
0056 CFF5 F000 00349         MOVFF   TABLAT, r0x05
005A 0009      00350         TBLRD*+ 
005C CFF5 F000 00351         MOVFF   TABLAT, r0x06
0060 5000      00352         MOVF    r0x04, W
0062 2600      00353         ADDWF   r0x02, F
0064 5000      00354         MOVF    r0x05, W
0066 2200      00355         ADDWFC  r0x03, F
0068 5000      00356         MOVF    r0x06, W
006A 6A00      00357         CLRF    r0x07
006C 2200      00358         ADDWFC  r0x07, F
006E 5000      00359         MOVF    r0x07, W
0070 0000      00360         BANKSEL (_top + 2)
0072 5D00      00361         SUBWF   (_top + 2), W, B
0074 E100      00362         BNZ     _00180_DS_
0076 5000      00363         MOVF    r0x03, W
               00364 ; removed redundant BANKSEL
0078 5D00      00365         SUBWF   (_top + 1), W, B
007A E100      00366         BNZ     _00180_DS_
007C 5000      00367         MOVF    r0x02, W
               00368 ; removed redundant BANKSEL
007E 5D00      00369         SUBWF   _top, W, B
0080           00370 _00180_DS_:
0080 E300      00371         BNC     _00168_DS_
               00372 ;       .line   201; picon.c    top = Picon_InBuffer;
0082 0E00      00373         MOVLW   LOW(_Picon_InBuffer)
0084 6EF6      00374         MOVWF   TBLPTRL
0086 0E00      00375         MOVLW   HIGH(_Picon_InBuffer)
0088 6EF7      00376         MOVWF   TBLPTRH
008A 0E00      00377         MOVLW   UPPER(_Picon_InBuffer)
008C 6EF8      00378         MOVWF   TBLPTRU
gpasm-0.13.4 beta               picon.asm   6-22-2007  21:24:52          PAGE  8


LOC  OBJECT CODE     LINE SOURCE TEXT
  VALUE
 
008E 0009      00379         TBLRD*+ 
0090 CFF5 F000 00380         MOVFF   TABLAT, _top
0094 0009      00381         TBLRD*+ 
0096 CFF5 F000 00382         MOVFF   TABLAT, (_top + 1)
009A 0009      00383         TBLRD*+ 
009C CFF5 F000 00384         MOVFF   TABLAT, (_top + 2)
00A0           00385 _00168_DS_:
00A0 0000      00386         BANKSEL _top
               00387 ;       .line   204; picon.c    if((top == bottom) && (num_bytes != 0))
00A2 5100      00388         MOVF    _top, W, B
00A4 0000      00389         BANKSEL _bottom
00A6 1900      00390         XORWF   _bottom, W, B
00A8 E100      00391         BNZ     _00181_DS_
00AA 0000      00392         BANKSEL (_top + 1)
00AC 5100      00393         MOVF    (_top + 1), W, B
00AE 0000      00394         BANKSEL (_bottom + 1)
00B0 1900      00395         XORWF   (_bottom + 1), W, B
00B2 E100      00396         BNZ     _00181_DS_
00B4 0000      00397         BANKSEL (_top + 2)
00B6 5100      00398         MOVF    (_top + 2), W, B
00B8 0000      00399         BANKSEL (_bottom + 2)
00BA 1900      00400         XORWF   (_bottom + 2), W, B
00BC E000      00401         BZ      _00182_DS_
00BE           00402 _00181_DS_:
00BE D000      00403         BRA     _00170_DS_
00C0           00404 _00182_DS_:
00C0 0000      00405         BANKSEL _num_bytes
00C2 5100      00406         MOVF    _num_bytes, W, B
00C4 E000      00407         BZ      _00170_DS_
               00408 ;       .line   208; picon.c    INTCONbits.GIE = ib;
00C6 5000      00409         MOVF    r0x01, W
               00410 ; #     MOVWF   r0x02
               00411 ; #     MOVF    r0x02, W
               00412 ; ;     peep 2 - Removed redundant move
00C8 0B01      00413         ANDLW   0x01
00CA 40E8      00414         RRNCF   WREG, W
00CC 6EF4      00415         MOVWF   PRODH
00CE 5000      00416         MOVF    _INTCONbits, W
00D0 0B7F      00417         ANDLW   0x7f
00D2 10F4      00418         IORWF   PRODH, W
00D4 6E00      00419         MOVWF   _INTCONbits
               00420 ;       .line   209; picon.c    return;
00D6 D000      00421         BRA     _00174_DS_
00D8           00422 _00170_DS_:
               00423 ;       .line   212; picon.c    *top = c;
00D8 C000 F000 00424         MOVFF   _top, r0x02
00DC C000 F000 00425         MOVFF   (_top + 1), r0x03
00E0 C000 F000 00426         MOVFF   (_top + 2), r0x04
00E4 C000 FFE5 00427         MOVFF   r0x00, POSTDEC1
00E8 C000 FFE9 00428         MOVFF   r0x02, FSR0L
00EC C000 FFF3 00429         MOVFF   r0x03, PRODL
00F0 5000      00430         MOVF    r0x04, W
00F2 EC00 F000 00431         CALL    __gptrput1
00F6 0000      00432         BANKSEL _top
gpasm-0.13.4 beta               picon.asm   6-22-2007  21:24:52          PAGE  9


LOC  OBJECT CODE     LINE SOURCE TEXT
  VALUE
 
               00433 ;       .line   213; picon.c    top++;
00F8 2B00      00434         INCF    _top, F, B
00FA E300      00435         BNC     _10167_DS_
               00436 ; removed redundant BANKSEL
00FC 2B00      00437         INCF    (_top + 1), F, B
00FE           00438 _10167_DS_:
00FE E300      00439         BNC     _20168_DS_
0100 0000      00440         BANKSEL (_top + 2)
0102 2B00      00441         INCF    (_top + 2), F, B
0104           00442 _20168_DS_:
0104 0000      00443         BANKSEL _num_bytes
               00444 ;       .line   214; picon.c    num_bytes++;
0106 2B00      00445         INCF    _num_bytes, F, B
0108 0000      00446         BANKSEL _send_in_progress
               00447 ;       .line   217; picon.c    if(!send_in_progress)
010A 5100      00448         MOVF    _send_in_progress, W, B
010C E100      00449         BNZ     _00173_DS_
               00450 ;       .line   219; picon.c    send_in_progress = TRUE;
010E 0E01      00451         MOVLW   0x01
               00452 ; removed redundant BANKSEL
0110 6F00      00453         MOVWF   _send_in_progress, B
               00454 ;       .line   220; picon.c    prepare_in();
0112 EC00 F000 00455         CALL    _prepare_in
0116           00456 _00173_DS_:
               00457 ;       .line   223; picon.c    INTCONbits.GIE = ib;
0116 5000      00458         MOVF    r0x01, W
0118 0B01      00459         ANDLW   0x01
011A 40E8      00460         RRNCF   WREG, W
011C 6EF4      00461         MOVWF   PRODH
011E 5000      00462         MOVF    _INTCONbits, W
0120 0B7F      00463         ANDLW   0x7f
0122 10F4      00464         IORWF   PRODH, W
0124 6E00      00465         MOVWF   _INTCONbits
0126           00466 _00174_DS_:
0126 CFE4 F000 00467         MOVFF   PREINC1, r0x07
012A CFE4 F000 00468         MOVFF   PREINC1, r0x06
012E CFE4 F000 00469         MOVFF   PREINC1, r0x05
0132 CFE4 F000 00470         MOVFF   PREINC1, r0x04
0136 CFE4 F000 00471         MOVFF   PREINC1, r0x03
013A CFE4 F000 00472         MOVFF   PREINC1, r0x02
013E CFE4 F000 00473         MOVFF   PREINC1, r0x01
0142 CFE4 F000 00474         MOVFF   PREINC1, r0x00
0146 0012      00475         RETURN  
               00476 
               00477 ; ; Starting pCode block
               00478 S_picon__picon_in       code
0000           00479 _picon_in:
               00480 ;       .line   150; picon.c    void picon_in(void)
0000 C000 FFE5 00481         MOVFF   r0x00, POSTDEC1
0004 C000 FFE5 00482         MOVFF   r0x01, POSTDEC1
0008 C000 FFE5 00483         MOVFF   r0x02, POSTDEC1
000C C000 FFE5 00484         MOVFF   r0x03, POSTDEC1
               00485 ;       .line   155; picon.c    ib = INTCONbits.GIE;
0010 6A00      00486         CLRF    r0x00
gpasm-0.13.4 beta               picon.asm   6-22-2007  21:24:52          PAGE 10


LOC  OBJECT CODE     LINE SOURCE TEXT
  VALUE
 
0012 BE00      00487         BTFSC   _INTCONbits, 7
0014 2A00      00488         INCF    r0x00, F
               00489 ;       .line   156; picon.c    INTCONbits.GIE = 0;
0016 9E00      00490         BCF     _INTCONbits, 7
               00491 ;       .line   158; picon.c    bottom = tmp_bottom; // Flush the sent chars
0018 C000 F000 00492         MOVFF   _tmp_bottom, _bottom
001C C000 F000 00493         MOVFF   (_tmp_bottom + 1), (_bottom + 1)
0020 C000 F000 00494         MOVFF   (_tmp_bottom + 2), (_bottom + 2)
               00495 ;       .line   160; picon.c    if((bottom == Picon_InBuffer) && (num_bytes != 0))
0024 0E00      00496         MOVLW   LOW(_Picon_InBuffer)
0026 6EF6      00497         MOVWF   TBLPTRL
0028 0E00      00498         MOVLW   HIGH(_Picon_InBuffer)
002A 6EF7      00499         MOVWF   TBLPTRH
002C 0E00      00500         MOVLW   UPPER(_Picon_InBuffer)
002E 6EF8      00501         MOVWF   TBLPTRU
0030 0009      00502         TBLRD*+ 
0032 CFF5 F000 00503         MOVFF   TABLAT, r0x01
0036 0009      00504         TBLRD*+ 
0038 CFF5 F000 00505         MOVFF   TABLAT, r0x02
003C 0009      00506         TBLRD*+ 
003E CFF5 F000 00507         MOVFF   TABLAT, r0x03
0042 0000      00508         BANKSEL _bottom
0044 5100      00509         MOVF    _bottom, W, B
0046 1800      00510         XORWF   r0x01, W
0048 E100      00511         BNZ     _00158_DS_
               00512 ; removed redundant BANKSEL
004A 5100      00513         MOVF    (_bottom + 1), W, B
004C 1800      00514         XORWF   r0x02, W
004E E100      00515         BNZ     _00158_DS_
               00516 ; removed redundant BANKSEL
0050 5100      00517         MOVF    (_bottom + 2), W, B
0052 1800      00518         XORWF   r0x03, W
0054 E000      00519         BZ      _00159_DS_
0056           00520 _00158_DS_:
0056 D000      00521         BRA     _00143_DS_
0058           00522 _00159_DS_:
0058 0000      00523         BANKSEL _num_bytes
005A 5100      00524         MOVF    _num_bytes, W, B
005C E000      00525         BZ      _00143_DS_
               00526 ;       .line   162; picon.c    num_bytes_to_send = num_bytes;
005E C000 F000 00527         MOVFF   _num_bytes, _num_bytes_to_send
0062 0000      00528         BANKSEL (_num_bytes_to_send + 1)
0064 6B00      00529         CLRF    (_num_bytes_to_send + 1), B
0066           00530 _00143_DS_:
0066 0000      00531         BANKSEL _num_bytes_to_send
               00532 ;       .line   165; picon.c    if((num_bytes_to_send == 0) && last_packet_was_void)
0068 5100      00533         MOVF    _num_bytes_to_send, W, B
               00534 ; removed redundant BANKSEL
006A 1100      00535         IORWF   (_num_bytes_to_send + 1), W, B
006C E100      00536         BNZ     _00149_DS_
006E 0000      00537         BANKSEL _last_packet_was_void
0070 5100      00538         MOVF    _last_packet_was_void, W, B
0072 E000      00539         BZ      _00149_DS_
0074 0000      00540         BANKSEL _num_bytes
gpasm-0.13.4 beta               picon.asm   6-22-2007  21:24:52          PAGE 11


LOC  OBJECT CODE     LINE SOURCE TEXT
  VALUE
 
               00541 ;       .line   168; picon.c    if(num_bytes != 0)
0076 5100      00542         MOVF    _num_bytes, W, B
0078 E000      00543         BZ      _00146_DS_
               00544 ;       .line   170; picon.c    prepare_in();
007A EC00 F000 00545         CALL    _prepare_in
007E D000      00546         BRA     _00147_DS_
0080           00547 _00146_DS_:
0080 0000      00548         BANKSEL _send_in_progress
               00549 ;       .line   178; picon.c    send_in_progress = FALSE;
0082 6B00      00550         CLRF    _send_in_progress, B
0084           00551 _00147_DS_:
               00552 ;       .line   182; picon.c    INTCONbits.GIE = ib;
0084 5000      00553         MOVF    r0x00, W
               00554 ; #     MOVWF   r0x01
               00555 ; #     MOVF    r0x01, W
               00556 ; ;     peep 2 - Removed redundant move
0086 0B01      00557         ANDLW   0x01
0088 40E8      00558         RRNCF   WREG, W
008A 6EF4      00559         MOVWF   PRODH
008C 5000      00560         MOVF    _INTCONbits, W
008E 0B7F      00561         ANDLW   0x7f
0090 10F4      00562         IORWF   PRODH, W
0092 6E00      00563         MOVWF   _INTCONbits
               00564 ;       .line   183; picon.c    return;
0094 D000      00565         BRA     _00151_DS_
0096           00566 _00149_DS_:
               00567 ;       .line   186; picon.c    prepare_next_packet();
0096 EC00 F000 00568         CALL    _prepare_next_packet
               00569 ;       .line   188; picon.c    INTCONbits.GIE = ib;
009A 5000      00570         MOVF    r0x00, W
009C 0B01      00571         ANDLW   0x01
009E 40E8      00572         RRNCF   WREG, W
00A0 6EF4      00573         MOVWF   PRODH
00A2 5000      00574         MOVF    _INTCONbits, W
00A4 0B7F      00575         ANDLW   0x7f
00A6 10F4      00576         IORWF   PRODH, W
00A8 6E00      00577         MOVWF   _INTCONbits
00AA           00578 _00151_DS_:
00AA CFE4 F000 00579         MOVFF   PREINC1, r0x03
00AE CFE4 F000 00580         MOVFF   PREINC1, r0x02
00B2 CFE4 F000 00581         MOVFF   PREINC1, r0x01
00B6 CFE4 F000 00582         MOVFF   PREINC1, r0x00
00BA 0012      00583         RETURN  
               00584 
               00585 ; ; Starting pCode block
               00586 S_picon__prepare_in     code
0000           00587 _prepare_in:
               00588 ;       .line   123; picon.c    void prepare_in(void)
0000 C000 FFE5 00589         MOVFF   r0x00, POSTDEC1
0004 C000 FFE5 00590         MOVFF   r0x01, POSTDEC1
0008 C000 FFE5 00591         MOVFF   r0x02, POSTDEC1
000C C000 FFE5 00592         MOVFF   r0x03, POSTDEC1
0010 C000 FFE5 00593         MOVFF   r0x04, POSTDEC1
0014 C000 FFE5 00594         MOVFF   r0x05, POSTDEC1
gpasm-0.13.4 beta               picon.asm   6-22-2007  21:24:52          PAGE 12


LOC  OBJECT CODE     LINE SOURCE TEXT
  VALUE
 
               00595 ;       .line   129; picon.c    ib = INTCONbits.GIE;
0018 6A00      00596         CLRF    r0x00
001A BE00      00597         BTFSC   _INTCONbits, 7
001C 2A00      00598         INCF    r0x00, F
               00599 ;       .line   130; picon.c    INTCONbits.GIE = 0;
001E 9E00      00600         BCF     _INTCONbits, 7
0020 0000      00601         BANKSEL (_top + 2)
               00602 ;       .line   132; picon.c    if((top <= bottom) && (num_bytes > 0))
0022 5100      00603         MOVF    (_top + 2), W, B
0024 0000      00604         BANKSEL (_bottom + 2)
0026 5D00      00605         SUBWF   (_bottom + 2), W, B
0028 E100      00606         BNZ     _00137_DS_
002A 0000      00607         BANKSEL (_top + 1)
002C 5100      00608         MOVF    (_top + 1), W, B
002E 0000      00609         BANKSEL (_bottom + 1)
0030 5D00      00610         SUBWF   (_bottom + 1), W, B
0032 E100      00611         BNZ     _00137_DS_
0034 0000      00612         BANKSEL _top
0036 5100      00613         MOVF    _top, W, B
0038 0000      00614         BANKSEL _bottom
003A 5D00      00615         SUBWF   _bottom, W, B
003C           00616 _00137_DS_:
003C E300      00617         BNC     _00130_DS_
003E 0000      00618         BANKSEL _num_bytes
0040 5100      00619         MOVF    _num_bytes, W, B
0042 E000      00620         BZ      _00130_DS_
               00621 ;       .line   135; picon.c    top_send_buffer = Picon_InBuffer + picon_buffer_size;
0044 0E00      00622         MOVLW   LOW(_picon_buffer_size)
0046 6EF6      00623         MOVWF   TBLPTRL
0048 0E00      00624         MOVLW   HIGH(_picon_buffer_size)
004A 6EF7      00625         MOVWF   TBLPTRH
004C 0E00      00626         MOVLW   UPPER(_picon_buffer_size)
004E 6EF8      00627         MOVWF   TBLPTRU
0050 0009      00628         TBLRD*+ 
0052 CFF5 F000 00629         MOVFF   TABLAT, r0x01
0056 0009      00630         TBLRD*+ 
0058 CFF5 F000 00631         MOVFF   TABLAT, r0x02
005C 0E00      00632         MOVLW   LOW(_Picon_InBuffer)
005E 6EF6      00633         MOVWF   TBLPTRL
0060 0E00      00634         MOVLW   HIGH(_Picon_InBuffer)
0062 6EF7      00635         MOVWF   TBLPTRH
0064 0E00      00636         MOVLW   UPPER(_Picon_InBuffer)
0066 6EF8      00637         MOVWF   TBLPTRU
0068 0009      00638         TBLRD*+ 
006A CFF5 F000 00639         MOVFF   TABLAT, r0x03
006E 0009      00640         TBLRD*+ 
0070 CFF5 F000 00641         MOVFF   TABLAT, r0x04
0074 0009      00642         TBLRD*+ 
0076 CFF5 F000 00643         MOVFF   TABLAT, r0x05
007A 5000      00644         MOVF    r0x01, W
007C 2400      00645         ADDWF   r0x03, W
007E 6E00      00646         MOVWF   r0x03
0080 5000      00647         MOVF    r0x02, W
0082 2000      00648         ADDWFC  r0x04, W
gpasm-0.13.4 beta               picon.asm   6-22-2007  21:24:52          PAGE 13


LOC  OBJECT CODE     LINE SOURCE TEXT
  VALUE
 
0084 6E00      00649         MOVWF   r0x02
0086 D000      00650         BRA     _00131_DS_
0088           00651 _00130_DS_:
               00652 ;       .line   139; picon.c    top_send_buffer = top;
0088 C000 F000 00653         MOVFF   _top, r0x03
008C C000 F000 00654         MOVFF   (_top + 1), r0x02
0090 C000 F000 00655         MOVFF   (_top + 2), r0x01
0094           00656 _00131_DS_:
0094 0000      00657         BANKSEL _bottom
               00658 ;       .line   143; picon.c    num_bytes_to_send = top_send_buffer - bottom;
0096 5100      00659         MOVF    _bottom, W, B
0098 5C00      00660         SUBWF   r0x03, W
009A 0000      00661         BANKSEL _num_bytes_to_send
009C 6F00      00662         MOVWF   _num_bytes_to_send, B
009E 0000      00663         BANKSEL (_bottom + 1)
00A0 5100      00664         MOVF    (_bottom + 1), W, B
00A2 5800      00665         SUBWFB  r0x02, W
00A4 0000      00666         BANKSEL (_num_bytes_to_send + 1)
00A6 6F00      00667         MOVWF   (_num_bytes_to_send + 1), B
               00668 ;       .line   145; picon.c    prepare_next_packet();
00A8 EC00 F000 00669         CALL    _prepare_next_packet
               00670 ;       .line   147; picon.c    INTCONbits.GIE = ib;
00AC 5000      00671         MOVF    r0x00, W
00AE 0B01      00672         ANDLW   0x01
00B0 40E8      00673         RRNCF   WREG, W
00B2 6EF4      00674         MOVWF   PRODH
00B4 5000      00675         MOVF    _INTCONbits, W
00B6 0B7F      00676         ANDLW   0x7f
00B8 10F4      00677         IORWF   PRODH, W
00BA 6E00      00678         MOVWF   _INTCONbits
00BC CFE4 F000 00679         MOVFF   PREINC1, r0x05
00C0 CFE4 F000 00680         MOVFF   PREINC1, r0x04
00C4 CFE4 F000 00681         MOVFF   PREINC1, r0x03
00C8 CFE4 F000 00682         MOVFF   PREINC1, r0x02
00CC CFE4 F000 00683         MOVFF   PREINC1, r0x01
00D0 CFE4 F000 00684         MOVFF   PREINC1, r0x00
00D4 0012      00685         RETURN  
               00686 
               00687 ; ; Starting pCode block
               00688 S_picon__prepare_next_packet    code
0000           00689 _prepare_next_packet:
               00690 ;       .line   85; picon.c     void prepare_next_packet(void)
0000 C000 FFE5 00691         MOVFF   r0x00, POSTDEC1
0004 C000 FFE5 00692         MOVFF   r0x01, POSTDEC1
0008 C000 FFE5 00693         MOVFF   r0x02, POSTDEC1
000C C000 FFE5 00694         MOVFF   r0x03, POSTDEC1
0010 C000 FFE5 00695         MOVFF   r0x04, POSTDEC1
0014 C000 FFE5 00696         MOVFF   r0x05, POSTDEC1
               00697 ;       .line   87; picon.c     last_packet_was_void = (num_bytes_to_send < PICON_PACKET_SIZE);
0018 0E00      00698         MOVLW   0x00
001A 0000      00699         BANKSEL (_num_bytes_to_send + 1)
001C 5D00      00700         SUBWF   (_num_bytes_to_send + 1), W, B
001E E100      00701         BNZ     _00123_DS_
0020 0E08      00702         MOVLW   0x08
gpasm-0.13.4 beta               picon.asm   6-22-2007  21:24:52          PAGE 14


LOC  OBJECT CODE     LINE SOURCE TEXT
  VALUE
 
               00703 ; removed redundant BANKSEL
0022 5D00      00704         SUBWF   _num_bytes_to_send, W, B
0024           00705 _00123_DS_:
0024 70D8      00706         BTG     STATUS, 0
0026 0000      00707         BANKSEL _last_packet_was_void
0028 6B00      00708         CLRF    _last_packet_was_void, B
002A 3700      00709         RLCF    _last_packet_was_void, F, B
               00710 ;       .line   90; picon.c     if(last_packet_was_void)
002C 5100      00711         MOVF    _last_packet_was_void, W, B
002E E000      00712         BZ      _00110_DS_
               00713 ; #     MOVF    _num_bytes_to_send, W, B
               00714 ; #     MOVWF   r0x00
               00715 ; #     MOVF    r0x00, W
               00716 ; ;     peep 9c - Removed redundant move
0030 0000      00717         BANKSEL _num_bytes_to_send
               00718 ;       .line   92; picon.c     num_bytes -= num_bytes_to_send;
0032 5100      00719         MOVF    _num_bytes_to_send, W, B
0034 0000      00720         BANKSEL _num_bytes
0036 5F00      00721         SUBWF   _num_bytes, F, B
0038 D000      00722         BRA     _00111_DS_
003A           00723 _00110_DS_:
               00724 ;       .line   96; picon.c     num_bytes -= PICON_PACKET_SIZE;
003A 0EF8      00725         MOVLW   0xf8
003C 0000      00726         BANKSEL _num_bytes
003E 2700      00727         ADDWF   _num_bytes, F, B
0040           00728 _00111_DS_:
               00729 ;       .line   100; picon.c    EP_IN_BD(picon_ep).ADR = (uchar __data *) bottom;
0040 0E00      00730         MOVLW   LOW(_picon_ep)
0042 6EF6      00731         MOVWF   TBLPTRL
0044 0E00      00732         MOVLW   HIGH(_picon_ep)
0046 6EF7      00733         MOVWF   TBLPTRH
0048 0E00      00734         MOVLW   UPPER(_picon_ep)
004A 6EF8      00735         MOVWF   TBLPTRU
004C 0009      00736         TBLRD*+ 
004E CFF5 F000 00737         MOVFF   TABLAT, r0x00
0052 5000      00738         MOVF    r0x00, W
0054 2400      00739         ADDWF   r0x00, W
0056 6E00      00740         MOVWF   r0x01
0058 2A00      00741         INCF    r0x01, F
               00742 ; ;multiply lit val:0x04 by variable r0x01 and store in r0x01
               00743 ; ;Unrolled 8 X 8 multiplication
               00744 ; ;FIXME: the function does not support result==WREG
005A 5000      00745         MOVF    r0x01, W
005C 0D04      00746         MULLW   0x04
005E CFF3 F000 00747         MOVFF   PRODL, r0x01
0062 0E00      00748         MOVLW   LOW(_ep_bdt)
0064 2600      00749         ADDWF   r0x01, F
0066 0E00      00750         MOVLW   HIGH(_ep_bdt)
0068 6A00      00751         CLRF    r0x02
006A 2200      00752         ADDWFC  r0x02, F
006C 0E02      00753         MOVLW   0x02
006E 2600      00754         ADDWF   r0x01, F
0070 B0D8      00755         BTFSC   STATUS, 0
0072 2A00      00756         INCF    r0x02, F
gpasm-0.13.4 beta               picon.asm   6-22-2007  21:24:52          PAGE 15


LOC  OBJECT CODE     LINE SOURCE TEXT
  VALUE
 
0074 0000      00757         BANKSEL _bottom
0076 5100      00758         MOVF    _bottom, W, B
0078 6E00      00759         MOVWF   r0x03
               00760 ; removed redundant BANKSEL
007A 5100      00761         MOVF    (_bottom + 1), W, B
007C 6E00      00762         MOVWF   r0x04
007E C000 FFE9 00763         MOVFF   r0x01, FSR0L
0082 C000 FFEA 00764         MOVFF   r0x02, FSR0H
0086 C000 FFEE 00765         MOVFF   r0x03, POSTINC0
008A C000 FFEF 00766         MOVFF   r0x04, INDF0
               00767 ;       .line   103; picon.c    tmp_bottom = bottom;
008E C000 F000 00768         MOVFF   _bottom, _tmp_bottom
0092 C000 F000 00769         MOVFF   (_bottom + 1), (_tmp_bottom + 1)
0096 C000 F000 00770         MOVFF   (_bottom + 2), (_tmp_bottom + 2)
               00771 ;       .line   104; picon.c    fill_in_buffer(picon_ep, &tmp_bottom, PICON_PACKET_SIZE, &num_bytes_to_send);
009A 0E00      00772         MOVLW   HIGH(_tmp_bottom)
009C 6E00      00773         MOVWF   r0x02
009E 0E00      00774         MOVLW   LOW(_tmp_bottom)
00A0 6E00      00775         MOVWF   r0x01
00A2 0E80      00776         MOVLW   0x80
00A4 6E00      00777         MOVWF   r0x03
00A6 0E00      00778         MOVLW   HIGH(_num_bytes_to_send)
00A8 6E00      00779         MOVWF   r0x05
00AA 0E00      00780         MOVLW   LOW(_num_bytes_to_send)
00AC 6E00      00781         MOVWF   r0x04
00AE 0E80      00782         MOVLW   0x80
               00783 ; #     MOVWF   r0x06
               00784 ; #     MOVF    r0x06, W
               00785 ; ;     peep 2 - Removed redundant move
00B0 6EE5      00786         MOVWF   POSTDEC1
00B2 5000      00787         MOVF    r0x05, W
00B4 6EE5      00788         MOVWF   POSTDEC1
00B6 5000      00789         MOVF    r0x04, W
00B8 6EE5      00790         MOVWF   POSTDEC1
00BA 6AE5      00791         CLRF    POSTDEC1
00BC 0E08      00792         MOVLW   0x08
00BE 6EE5      00793         MOVWF   POSTDEC1
00C0 5000      00794         MOVF    r0x03, W
00C2 6EE5      00795         MOVWF   POSTDEC1
00C4 5000      00796         MOVF    r0x02, W
00C6 6EE5      00797         MOVWF   POSTDEC1
00C8 5000      00798         MOVF    r0x01, W
00CA 6EE5      00799         MOVWF   POSTDEC1
00CC 5000      00800         MOVF    r0x00, W
00CE 6EE5      00801         MOVWF   POSTDEC1
00D0 EC00 F000 00802         CALL    _fill_in_buffer
00D4 0E09      00803         MOVLW   0x09
00D6 26E1      00804         ADDWF   FSR1L, F
               00805 ;       .line   106; picon.c    if(tmp_bottom >= (Picon_InBuffer + picon_buffer_size))
00D8 0E00      00806         MOVLW   LOW(_picon_buffer_size)
00DA 6EF6      00807         MOVWF   TBLPTRL
00DC 0E00      00808         MOVLW   HIGH(_picon_buffer_size)
00DE 6EF7      00809         MOVWF   TBLPTRH
00E0 0E00      00810         MOVLW   UPPER(_picon_buffer_size)
gpasm-0.13.4 beta               picon.asm   6-22-2007  21:24:52          PAGE 16


LOC  OBJECT CODE     LINE SOURCE TEXT
  VALUE
 
00E2 6EF8      00811         MOVWF   TBLPTRU
00E4 0009      00812         TBLRD*+ 
00E6 CFF5 F000 00813         MOVFF   TABLAT, r0x00
00EA 0009      00814         TBLRD*+ 
00EC CFF5 F000 00815         MOVFF   TABLAT, r0x01
00F0 0E00      00816         MOVLW   LOW(_Picon_InBuffer)
00F2 6EF6      00817         MOVWF   TBLPTRL
00F4 0E00      00818         MOVLW   HIGH(_Picon_InBuffer)
00F6 6EF7      00819         MOVWF   TBLPTRH
00F8 0E00      00820         MOVLW   UPPER(_Picon_InBuffer)
00FA 6EF8      00821         MOVWF   TBLPTRU
00FC 0009      00822         TBLRD*+ 
00FE CFF5 F000 00823         MOVFF   TABLAT, r0x02
0102 0009      00824         TBLRD*+ 
0104 CFF5 F000 00825         MOVFF   TABLAT, r0x03
0108 0009      00826         TBLRD*+ 
010A CFF5 F000 00827         MOVFF   TABLAT, r0x04
010E 5000      00828         MOVF    r0x00, W
0110 2600      00829         ADDWF   r0x02, F
0112 5000      00830         MOVF    r0x01, W
0114 2200      00831         ADDWFC  r0x03, F
0116 6AE8      00832         CLRF    WREG
0118 2200      00833         ADDWFC  r0x04, F
011A 5000      00834         MOVF    r0x04, W
011C 0000      00835         BANKSEL (_tmp_bottom + 2)
011E 5D00      00836         SUBWF   (_tmp_bottom + 2), W, B
0120 E100      00837         BNZ     _00124_DS_
0122 5000      00838         MOVF    r0x03, W
               00839 ; removed redundant BANKSEL
0124 5D00      00840         SUBWF   (_tmp_bottom + 1), W, B
0126 E100      00841         BNZ     _00124_DS_
0128 5000      00842         MOVF    r0x02, W
               00843 ; removed redundant BANKSEL
012A 5D00      00844         SUBWF   _tmp_bottom, W, B
012C           00845 _00124_DS_:
012C E300      00846         BNC     _00113_DS_
               00847 ;       .line   109; picon.c    tmp_bottom -= picon_buffer_size;
012E 5000      00848         MOVF    r0x00, W
0130 0000      00849         BANKSEL _tmp_bottom
0132 5F00      00850         SUBWF   _tmp_bottom, F, B
0134 5000      00851         MOVF    r0x01, W
               00852 ; removed redundant BANKSEL
0136 5B00      00853         SUBWFB  (_tmp_bottom + 1), F, B
0138 6AE8      00854         CLRF    WREG
               00855 ; removed redundant BANKSEL
013A 5B00      00856         SUBWFB  (_tmp_bottom + 2), F, B
013C           00857 _00113_DS_:
               00858 ;       .line   113; picon.c    if(EP_IN_BD(picon_ep).Stat.DTS == 0)
013C 0E00      00859         MOVLW   LOW(_picon_ep)
013E 6EF6      00860         MOVWF   TBLPTRL
0140 0E00      00861         MOVLW   HIGH(_picon_ep)
0142 6EF7      00862         MOVWF   TBLPTRH
0144 0E00      00863         MOVLW   UPPER(_picon_ep)
0146 6EF8      00864         MOVWF   TBLPTRU
gpasm-0.13.4 beta               picon.asm   6-22-2007  21:24:52          PAGE 17


LOC  OBJECT CODE     LINE SOURCE TEXT
  VALUE
 
0148 0009      00865         TBLRD*+ 
014A CFF5 F000 00866         MOVFF   TABLAT, r0x00
014E 5000      00867         MOVF    r0x00, W
0150 2400      00868         ADDWF   r0x00, W
0152 6E00      00869         MOVWF   r0x01
0154 2800      00870         INCF    r0x01, W
               00871 ; #     MOVWF   r0x00
               00872 ; #;;multiply lit val:0x04 by variable r0x00 and store in r0x00
               00873 ; #;;Unrolled 8 X 8 multiplication
               00874 ; #;;FIXME: the function does not support result==WREG
               00875 ; #     MOVF    r0x00, W
               00876 ; ;     peep 2 - Removed redundant move
0156 0D04      00877         MULLW   0x04
0158 CFF3 F000 00878         MOVFF   PRODL, r0x00
015C 0E00      00879         MOVLW   LOW(_ep_bdt)
015E 2400      00880         ADDWF   r0x00, W
0160 6E00      00881         MOVWF   r0x01
0162 6A00      00882         CLRF    r0x02
0164 0E00      00883         MOVLW   HIGH(_ep_bdt)
0166 2200      00884         ADDWFC  r0x02, F
0168 6AE8      00885         CLRF    WREG
016A C000 FFE9 00886         MOVFF   r0x01, FSR0L
016E C000 FFEA 00887         MOVFF   r0x02, FSR0H
0172 BCEF      00888         BTFSC   INDF0, 6
0174 2AE8      00889         INCF    WREG, F
0176 6E00      00890         MOVWF   r0x01
0178 5000      00891         MOVF    r0x01, W
017A E100      00892         BNZ     _00115_DS_
               00893 ;       .line   115; picon.c    EP_IN_BD(picon_ep).Stat.uc = BDS_USIE | BDS_DAT1 | BDS_DTSEN;
017C 0E00      00894         MOVLW   LOW(_ep_bdt)
017E 2400      00895         ADDWF   r0x00, W
0180 6E00      00896         MOVWF   r0x01
0182 6A00      00897         CLRF    r0x02
0184 0E00      00898         MOVLW   HIGH(_ep_bdt)
0186 2200      00899         ADDWFC  r0x02, F
0188 C000 FFE9 00900         MOVFF   r0x01, FSR0L
018C C000 FFEA 00901         MOVFF   r0x02, FSR0H
0190 0EC8      00902         MOVLW   0xc8
0192 6EEF      00903         MOVWF   INDF0
0194 D000      00904         BRA     _00117_DS_
0196           00905 _00115_DS_:
               00906 ;       .line   119; picon.c    EP_IN_BD(picon_ep).Stat.uc = BDS_USIE | BDS_DAT0 | BDS_DTSEN;
0196 0E00      00907         MOVLW   LOW(_ep_bdt)
0198 2600      00908         ADDWF   r0x00, F
019A 0E00      00909         MOVLW   HIGH(_ep_bdt)
019C 6A00      00910         CLRF    r0x01
019E 2200      00911         ADDWFC  r0x01, F
01A0 C000 FFE9 00912         MOVFF   r0x00, FSR0L
01A4 C000 FFEA 00913         MOVFF   r0x01, FSR0H
01A8 0E88      00914         MOVLW   0x88
01AA 6EEF      00915         MOVWF   INDF0
01AC           00916 _00117_DS_:
01AC CFE4 F000 00917         MOVFF   PREINC1, r0x05
01B0 CFE4 F000 00918         MOVFF   PREINC1, r0x04
gpasm-0.13.4 beta               picon.asm   6-22-2007  21:24:52          PAGE 18


LOC  OBJECT CODE     LINE SOURCE TEXT
  VALUE
 
01B4 CFE4 F000 00919         MOVFF   PREINC1, r0x03
01B8 CFE4 F000 00920         MOVFF   PREINC1, r0x02
01BC CFE4 F000 00921         MOVFF   PREINC1, r0x01
01C0 CFE4 F000 00922         MOVFF   PREINC1, r0x00
01C4 0012      00923         RETURN  
               00924 
               00925 ; ; Starting pCode block
               00926 S_picon__picon_init     code
0000           00927 _picon_init:
               00928 ;       .line   64; picon.c     void picon_init(void)
0000 C000 FFE5 00929         MOVFF   r0x00, POSTDEC1
0004 C000 FFE5 00930         MOVFF   r0x01, POSTDEC1
0008 C000 FFE5 00931         MOVFF   r0x02, POSTDEC1
               00932 ;       .line   69; picon.c     bottom           = Picon_InBuffer;
000C 0E00      00933         MOVLW   LOW(_Picon_InBuffer)
000E 6EF6      00934         MOVWF   TBLPTRL
0010 0E00      00935         MOVLW   HIGH(_Picon_InBuffer)
0012 6EF7      00936         MOVWF   TBLPTRH
0014 0E00      00937         MOVLW   UPPER(_Picon_InBuffer)
0016 6EF8      00938         MOVWF   TBLPTRU
0018 0009      00939         TBLRD*+ 
001A CFF5 F000 00940         MOVFF   TABLAT, _bottom
001E 0009      00941         TBLRD*+ 
0020 CFF5 F000 00942         MOVFF   TABLAT, (_bottom + 1)
0024 0009      00943         TBLRD*+ 
0026 CFF5 F000 00944         MOVFF   TABLAT, (_bottom + 2)
               00945 ;       .line   70; picon.c     top              = Picon_InBuffer;
002A 0E00      00946         MOVLW   LOW(_Picon_InBuffer)
002C 6EF6      00947         MOVWF   TBLPTRL
002E 0E00      00948         MOVLW   HIGH(_Picon_InBuffer)
0030 6EF7      00949         MOVWF   TBLPTRH
0032 0E00      00950         MOVLW   UPPER(_Picon_InBuffer)
0034 6EF8      00951         MOVWF   TBLPTRU
0036 0009      00952         TBLRD*+ 
0038 CFF5 F000 00953         MOVFF   TABLAT, _top
003C 0009      00954         TBLRD*+ 
003E CFF5 F000 00955         MOVFF   TABLAT, (_top + 1)
0042 0009      00956         TBLRD*+ 
0044 CFF5 F000 00957         MOVFF   TABLAT, (_top + 2)
0048 0000      00958         BANKSEL _num_bytes
               00959 ;       .line   71; picon.c     num_bytes        = 0;
004A 6B00      00960         CLRF    _num_bytes, B
004C 0000      00961         BANKSEL _send_in_progress
               00962 ;       .line   72; picon.c     send_in_progress = FALSE;
004E 6B00      00963         CLRF    _send_in_progress, B
               00964 ;       .line   79; picon.c     EP_IN_BD(picon_ep).Stat.uc = BDS_UCPU | BDS_DAT1 | BDS_DTSEN;
0050 0E00      00965         MOVLW   LOW(_picon_ep)
0052 6EF6      00966         MOVWF   TBLPTRL
0054 0E00      00967         MOVLW   HIGH(_picon_ep)
0056 6EF7      00968         MOVWF   TBLPTRH
0058 0E00      00969         MOVLW   UPPER(_picon_ep)
005A 6EF8      00970         MOVWF   TBLPTRU
005C 0009      00971         TBLRD*+ 
005E CFF5 F000 00972         MOVFF   TABLAT, r0x00
gpasm-0.13.4 beta               picon.asm   6-22-2007  21:24:52          PAGE 19


LOC  OBJECT CODE     LINE SOURCE TEXT
  VALUE
 
0062 5000      00973         MOVF    r0x00, W
0064 2400      00974         ADDWF   r0x00, W
0066 6E00      00975         MOVWF   r0x01
0068 2A00      00976         INCF    r0x01, F
               00977 ; ;multiply lit val:0x04 by variable r0x01 and store in r0x01
               00978 ; ;Unrolled 8 X 8 multiplication
               00979 ; ;FIXME: the function does not support result==WREG
006A 5000      00980         MOVF    r0x01, W
006C 0D04      00981         MULLW   0x04
006E CFF3 F000 00982         MOVFF   PRODL, r0x01
0072 0E00      00983         MOVLW   LOW(_ep_bdt)
0074 2600      00984         ADDWF   r0x01, F
0076 0E00      00985         MOVLW   HIGH(_ep_bdt)
0078 6A00      00986         CLRF    r0x02
007A 2200      00987         ADDWFC  r0x02, F
007C C000 FFE9 00988         MOVFF   r0x01, FSR0L
0080 C000 FFEA 00989         MOVFF   r0x02, FSR0H
0084 0E48      00990         MOVLW   0x48
0086 6EEF      00991         MOVWF   INDF0
               00992 ;       .line   82; picon.c     *((&UEP0) + picon_ep) = EPHSHK_EN | EPINEN_EN | EPCONDIS_EN;
0088 0E00      00993         MOVLW   LOW(_UEP0)
008A 2600      00994         ADDWF   r0x00, F
008C 0E00      00995         MOVLW   HIGH(_UEP0)
008E 6A00      00996         CLRF    r0x01
0090 2200      00997         ADDWFC  r0x01, F
0092 C000 FFE9 00998         MOVFF   r0x00, FSR0L
0096 C000 FFEA 00999         MOVFF   r0x01, FSR0H
009A 0E1A      01000         MOVLW   0x1a
009C 6EEF      01001         MOVWF   INDF0
009E CFE4 F000 01002         MOVFF   PREINC1, r0x02
00A2 CFE4 F000 01003         MOVFF   PREINC1, r0x01
00A6 CFE4 F000 01004         MOVFF   PREINC1, r0x00
00AA 0012      01005         RETURN  
               01006 
               01007 
               01008 
               01009 ; Statistics:
               01010 ; code size:     1356 (0x054c) bytes ( 1.03%)
               01011 ;                 678 (0x02a6) words
               01012 ; udata size:      14 (0x000e) bytes ( 0.78%)
               01013 ; access size:      8 (0x0008) bytes
               01014 
               01015 
gpasm-0.13.4 beta               picon.asm   6-22-2007  21:24:52          PAGE 20


SYMBOL TABLE
  LABEL                             VALUE 

FSR0H                             00000FEA
FSR0L                             00000FE9
FSR1L                             00000FE1
FSR2L                             00000FD9
INDF0                             00000FEF
POSTDEC1                          00000FE5
POSTINC0                          00000FEE
PREINC1                           00000FE4
PRODH                             00000FF4
PRODL                             00000FF3
STATUS                            00000FD8
TABLAT                            00000FF5
TBLPTRH                           00000FF7
TBLPTRL                           00000FF6
TBLPTRU                           00000FF8
WREG                              00000FE8
_00110_DS_                        0000003A
_00111_DS_                        00000040
_00113_DS_                        0000013C
_00115_DS_                        00000196
_00117_DS_                        000001AC
_00123_DS_                        00000024
_00124_DS_                        0000012C
_00130_DS_                        00000088
_00131_DS_                        00000094
_00137_DS_                        0000003C
_00143_DS_                        00000066
_00146_DS_                        00000080
_00147_DS_                        00000084
_00149_DS_                        00000096
_00151_DS_                        000000AA
_00158_DS_                        00000056
_00159_DS_                        00000058
_00168_DS_                        000000A0
_00170_DS_                        000000D8
_00173_DS_                        00000116
_00174_DS_                        00000126
_00180_DS_                        00000080
_00181_DS_                        000000BE
_00182_DS_                        000000C0
_10167_DS_                        000000FE
_20168_DS_                        00000104
_ADCON0                           00000000
_ADCON0bits                       00000000
_ADCON1                           00000000
_ADCON1bits                       00000000
_ADCON2                           00000000
_ADCON2bits                       00000000
_ADRESH                           00000000
_ADRESL                           00000000
_BAUDCON                          00000000
_BAUDCONbits                      00000000
_BSR                              00000000
gpasm-0.13.4 beta               picon.asm   6-22-2007  21:24:52          PAGE 21


LOC  OBJECT CODE     LINE SOURCE TEXT
  VALUE
 
_BSRbits                          00000000
_CCP1CON                          00000000
_CCP1CONbits                      00000000
_CCP2CON                          00000000
_CCP2CONbits                      00000000
_CCPR1H                           00000000
_CCPR1L                           00000000
_CCPR2H                           00000000
_CCPR2L                           00000000
_CMCON                            00000000
_CMCONbits                        00000000
_CVRCON                           00000000
_CVRCONbits                       00000000
_ECCP1AS                          00000000
_ECCP1ASbits                      00000000
_ECCP1DEL                         00000000
_ECCP1DELbits                     00000000
_EEADR                            00000000
_EECON1                           00000000
_EECON1bits                       00000000
_EECON2                           00000000
_EEDATA                           00000000
_FSR0H                            00000000
_FSR0Hbits                        00000000
_FSR0L                            00000000
_FSR1H                            00000000
_FSR1Hbits                        00000000
_FSR1L                            00000000
_FSR2H                            00000000
_FSR2Hbits                        00000000
_FSR2L                            00000000
_HLVDCON                          00000000
_HLVDCONbits                      00000000
_INDF0                            00000000
_INDF1                            00000000
_INDF2                            00000000
_INTCON                           00000000
_INTCON2                          00000000
_INTCON2bits                      00000000
_INTCON3                          00000000
_INTCON3bits                      00000000
_INTCONbits                       00000000
_IPR1                             00000000
_IPR1bits                         00000000
_IPR2                             00000000
_IPR2bits                         00000000
_LATA                             00000000
_LATAbits                         00000000
_LATB                             00000000
_LATBbits                         00000000
_LATC                             00000000
_LATCbits                         00000000
_OSCCON                           00000000
_OSCCONbits                       00000000
gpasm-0.13.4 beta               picon.asm   6-22-2007  21:24:52          PAGE 22


LOC  OBJECT CODE     LINE SOURCE TEXT
  VALUE
 
_OSCTUNE                          00000000
_OSCTUNEbits                      00000000
_PCL                              00000000
_PCLATH                           00000000
_PCLATHbits                       00000000
_PCLATU                           00000000
_PCLATUbits                       00000000
_PIE1                             00000000
_PIE1bits                         00000000
_PIE2                             00000000
_PIE2bits                         00000000
_PIR1                             00000000
_PIR1bits                         00000000
_PIR2                             00000000
_PIR2bits                         00000000
_PLUSW0                           00000000
_PLUSW1                           00000000
_PLUSW2                           00000000
_PORTA                            00000000
_PORTAbits                        00000000
_PORTB                            00000000
_PORTBbits                        00000000
_PORTC                            00000000
_PORTCbits                        00000000
_PORTE                            00000000
_PORTEbits                        00000000
_POSTDEC0                         00000000
_POSTDEC1                         00000000
_POSTDEC2                         00000000
_POSTINC0                         00000000
_POSTINC1                         00000000
_POSTINC2                         00000000
_PR2                              00000000
_PREINC0                          00000000
_PREINC1                          00000000
_PREINC2                          00000000
_PRODH                            00000000
_PRODL                            00000000
_Picon_InBuffer                   00000000
_RCON                             00000000
_RCONbits                         00000000
_RCREG                            00000000
_RCSTA                            00000000
_RCSTAbits                        00000000
_SPBRG                            00000000
_SPBRGH                           00000000
_SPPCFG                           00000000
_SPPCFGbits                       00000000
_SPPCON                           00000000
_SPPCONbits                       00000000
_SPPDATA                          00000000
_SPPDATAbits                      00000000
_SPPEPS                           00000000
_SPPEPSbits                       00000000
gpasm-0.13.4 beta               picon.asm   6-22-2007  21:24:52          PAGE 23


LOC  OBJECT CODE     LINE SOURCE TEXT
  VALUE
 
_SSPADD                           00000000
_SSPBUF                           00000000
_SSPCON1                          00000000
_SSPCON1bits                      00000000
_SSPCON2                          00000000
_SSPCON2bits                      00000000
_SSPSTAT                          00000000
_SSPSTATbits                      00000000
_STATUS                           00000000
_STATUSbits                       00000000
_STKPTR                           00000000
_STKPTRbits                       00000000
_T0CON                            00000000
_T0CONbits                        00000000
_T1CON                            00000000
_T1CONbits                        00000000
_T2CON                            00000000
_T2CONbits                        00000000
_T3CON                            00000000
_T3CONbits                        00000000
_TABLAT                           00000000
_TBLPTRH                          00000000
_TBLPTRL                          00000000
_TBLPTRU                          00000000
_TBLPTRUbits                      00000000
_TMR0H                            00000000
_TMR0L                            00000000
_TMR1H                            00000000
_TMR1L                            00000000
_TMR2                             00000000
_TMR3H                            00000000
_TMR3L                            00000000
_TOSH                             00000000
_TOSL                             00000000
_TOSU                             00000000
_TOSUbits                         00000000
_TRISA                            00000000
_TRISAbits                        00000000
_TRISB                            00000000
_TRISBbits                        00000000
_TRISC                            00000000
_TRISCbits                        00000000
_TXREG                            00000000
_TXSTA                            00000000
_TXSTAbits                        00000000
_UADDR                            00000000
_UADDRbits                        00000000
_UCFG                             00000000
_UCFGbits                         00000000
_UCON                             00000000
_UCONbits                         00000000
_UEIE                             00000000
_UEIEbits                         00000000
_UEIR                             00000000
gpasm-0.13.4 beta               picon.asm   6-22-2007  21:24:52          PAGE 24


LOC  OBJECT CODE     LINE SOURCE TEXT
  VALUE
 
_UEIRbits                         00000000
_UEP0                             00000000
_UEP0bits                         00000000
_UEP1                             00000000
_UEP10                            00000000
_UEP10bits                        00000000
_UEP11                            00000000
_UEP11bits                        00000000
_UEP12                            00000000
_UEP12bits                        00000000
_UEP13                            00000000
_UEP13bits                        00000000
_UEP14                            00000000
_UEP14bits                        00000000
_UEP15                            00000000
_UEP15bits                        00000000
_UEP1bits                         00000000
_UEP2                             00000000
_UEP2bits                         00000000
_UEP3                             00000000
_UEP3bits                         00000000
_UEP4                             00000000
_UEP4bits                         00000000
_UEP5                             00000000
_UEP5bits                         00000000
_UEP6                             00000000
_UEP6bits                         00000000
_UEP7                             00000000
_UEP7bits                         00000000
_UEP8                             00000000
_UEP8bits                         00000000
_UEP9                             00000000
_UEP9bits                         00000000
_UFRMH                            00000000
_UFRMHbits                        00000000
_UFRML                            00000000
_UFRMLbits                        00000000
_UIE                              00000000
_UIEbits                          00000000
_UIR                              00000000
_UIRbits                          00000000
_USTAT                            00000000
_USTATbits                        00000000
_WDTCON                           00000000
_WDTCONbits                       00000000
_WREG                             00000000
__18F4550                         00000001
__gptrput1                        00000000
_bottom                           00000000
_ep_bdt                           00000000
_fill_in_buffer                   00000000
_last_packet_was_void             00000000
_num_bytes                        00000000
_num_bytes_to_send                00000000
gpasm-0.13.4 beta               picon.asm   6-22-2007  21:24:52          PAGE 25


LOC  OBJECT CODE     LINE SOURCE TEXT
  VALUE
 
_picon_buffer_size                00000000
_picon_ep                         00000000
_picon_in                         00000000
_picon_init                       00000000
_prepare_in                       00000000
_prepare_next_packet              00000000
_putchar                          00000000
_send_in_progress                 00000000
_stdin                            00000000
_stdout                           00000000
_tmp_bottom                       00000000
_top                              00000000
_usb_active_alt_setting           00000000
_usb_active_cfg                   00000000
_usb_device_state                 00000000
r0x00                             00000000
r0x01                             00000001
r0x02                             00000002
r0x03                             00000003
r0x04                             00000004
r0x05                             00000005
r0x06                             00000006
r0x07                             00000007


Errors   :       0
Warnings :       0 reported,       0 suppressed
Messages :       0 reported,       0 suppressed

